target datalayout = "e-m:e-p270:32:32-p271:32:32-p272:64:64-i64:64-i128:128-f80:128-n8:16:32:64-S128"
target triple = "x86_64-pc-linux-gnu"

%struct._zend_output_globals = type { %struct._zend_stack, ptr, ptr, ptr, i32, i32 }
%struct._zend_stack = type { i32, i32, i32, ptr }
%struct._sapi_module_struct = type { ptr, ptr, ptr, ptr, ptr, ptr, ptr, ptr, ptr, ptr, ptr, ptr, ptr, ptr, ptr, ptr, ptr, ptr, ptr, ptr, ptr, ptr, ptr, ptr, i32, i32, ptr, ptr, ptr, ptr, ptr, ptr, i32, ptr, ptr, ptr }
%struct._php_output_context = type { i32, %struct._php_output_buffer, %struct._php_output_buffer }
%struct._php_output_buffer = type { ptr, i64, i64, i32 }
%struct._php_output_handler = type { ptr, i32, i32, i64, %struct._php_output_buffer, ptr, ptr, %union.anon.2 }
%union.anon.2 = type { ptr }

@output_globals = dso_local global %struct._zend_output_globals zeroinitializer, align 8
@sapi_module = external global %struct._sapi_module_struct, align 8
@.str = private unnamed_addr constant [15 x i8] c"ref.outcontrol\00", align 1
@.str.16 = private unnamed_addr constant [65 x i8] c"Cannot use output buffering in output buffering display handlers\00", align 1

; Function Attrs: inlinehint nounwind uwtable
define internal void @php_output_context_dtor(ptr noundef %0) #1 {
  %2 = alloca ptr, align 8
  store ptr %0, ptr %2, align 8, !tbaa !69
  %3 = load ptr, ptr %2, align 8, !tbaa !69
  %4 = getelementptr inbounds nuw %struct._php_output_context, ptr %3, i32 0, i32 1
  %5 = getelementptr inbounds nuw %struct._php_output_buffer, ptr %4, i32 0, i32 3
  %6 = load i32, ptr %5, align 8
  %7 = and i32 %6, 1
  %8 = icmp ne i32 %7, 0
  br i1 %8, label %9, label %23

9:                                                ; preds = %1
  %10 = load ptr, ptr %2, align 8, !tbaa !69
  %11 = getelementptr inbounds nuw %struct._php_output_context, ptr %10, i32 0, i32 1
  %12 = getelementptr inbounds nuw %struct._php_output_buffer, ptr %11, i32 0, i32 0
  %13 = load ptr, ptr %12, align 8, !tbaa !61
  %14 = icmp ne ptr %13, null
  br i1 %14, label %15, label %23

15:                                               ; preds = %9
  %16 = load ptr, ptr %2, align 8, !tbaa !69
  %17 = getelementptr inbounds nuw %struct._php_output_context, ptr %16, i32 0, i32 1
  %18 = getelementptr inbounds nuw %struct._php_output_buffer, ptr %17, i32 0, i32 0
  %19 = load ptr, ptr %18, align 8, !tbaa !61
  call void @_efree(ptr noundef %19)
  %20 = load ptr, ptr %2, align 8, !tbaa !69
  %21 = getelementptr inbounds nuw %struct._php_output_context, ptr %20, i32 0, i32 1
  %22 = getelementptr inbounds nuw %struct._php_output_buffer, ptr %21, i32 0, i32 0
  store ptr null, ptr %22, align 8, !tbaa !61
  br label %23

23:                                               ; preds = %15, %9, %1
  %24 = load ptr, ptr %2, align 8, !tbaa !69
  %25 = getelementptr inbounds nuw %struct._php_output_context, ptr %24, i32 0, i32 2
  %26 = getelementptr inbounds nuw %struct._php_output_buffer, ptr %25, i32 0, i32 3
  %27 = load i32, ptr %26, align 8
  %28 = and i32 %27, 1
  %29 = icmp ne i32 %28, 0
  br i1 %29, label %30, label %44

30:                                               ; preds = %23
  %31 = load ptr, ptr %2, align 8, !tbaa !69
  %32 = getelementptr inbounds nuw %struct._php_output_context, ptr %31, i32 0, i32 2
  %33 = getelementptr inbounds nuw %struct._php_output_buffer, ptr %32, i32 0, i32 0
  %34 = load ptr, ptr %33, align 8, !tbaa !67
  %35 = icmp ne ptr %34, null
  br i1 %35, label %36, label %44

36:                                               ; preds = %30
  %37 = load ptr, ptr %2, align 8, !tbaa !69
  %38 = getelementptr inbounds nuw %struct._php_output_context, ptr %37, i32 0, i32 2
  %39 = getelementptr inbounds nuw %struct._php_output_buffer, ptr %38, i32 0, i32 0
  %40 = load ptr, ptr %39, align 8, !tbaa !67
  call void @_efree(ptr noundef %40)
  %41 = load ptr, ptr %2, align 8, !tbaa !69
  %42 = getelementptr inbounds nuw %struct._php_output_context, ptr %41, i32 0, i32 2
  %43 = getelementptr inbounds nuw %struct._php_output_buffer, ptr %42, i32 0, i32 0
  store ptr null, ptr %43, align 8, !tbaa !67
  br label %44

44:                                               ; preds = %36, %30, %23
  ret void
}

; Function Attrs: inlinehint nounwind uwtable
define internal void @php_output_context_pass(ptr noundef %0) #1 {
  %2 = alloca ptr, align 8
  store ptr %0, ptr %2, align 8, !tbaa !69
  %3 = load ptr, ptr %2, align 8, !tbaa !69
  %4 = getelementptr inbounds nuw %struct._php_output_context, ptr %3, i32 0, i32 1
  %5 = getelementptr inbounds nuw %struct._php_output_buffer, ptr %4, i32 0, i32 0
  %6 = load ptr, ptr %5, align 8, !tbaa !61
  %7 = load ptr, ptr %2, align 8, !tbaa !69
  %8 = getelementptr inbounds nuw %struct._php_output_context, ptr %7, i32 0, i32 2
  %9 = getelementptr inbounds nuw %struct._php_output_buffer, ptr %8, i32 0, i32 0
  store ptr %6, ptr %9, align 8, !tbaa !67
  %10 = load ptr, ptr %2, align 8, !tbaa !69
  %11 = getelementptr inbounds nuw %struct._php_output_context, ptr %10, i32 0, i32 1
  %12 = getelementptr inbounds nuw %struct._php_output_buffer, ptr %11, i32 0, i32 2
  %13 = load i64, ptr %12, align 8, !tbaa !64
  %14 = load ptr, ptr %2, align 8, !tbaa !69
  %15 = getelementptr inbounds nuw %struct._php_output_context, ptr %14, i32 0, i32 2
  %16 = getelementptr inbounds nuw %struct._php_output_buffer, ptr %15, i32 0, i32 2
  store i64 %13, ptr %16, align 8, !tbaa !68
  %17 = load ptr, ptr %2, align 8, !tbaa !69
  %18 = getelementptr inbounds nuw %struct._php_output_context, ptr %17, i32 0, i32 1
  %19 = getelementptr inbounds nuw %struct._php_output_buffer, ptr %18, i32 0, i32 1
  %20 = load i64, ptr %19, align 8, !tbaa !127
  %21 = load ptr, ptr %2, align 8, !tbaa !69
  %22 = getelementptr inbounds nuw %struct._php_output_context, ptr %21, i32 0, i32 2
  %23 = getelementptr inbounds nuw %struct._php_output_buffer, ptr %22, i32 0, i32 1
  store i64 %20, ptr %23, align 8, !tbaa !128
  %24 = load ptr, ptr %2, align 8, !tbaa !69
  %25 = getelementptr inbounds nuw %struct._php_output_context, ptr %24, i32 0, i32 1
  %26 = getelementptr inbounds nuw %struct._php_output_buffer, ptr %25, i32 0, i32 3
  %27 = load i32, ptr %26, align 8
  %28 = and i32 %27, 1
  %29 = load ptr, ptr %2, align 8, !tbaa !69
  %30 = getelementptr inbounds nuw %struct._php_output_context, ptr %29, i32 0, i32 2
  %31 = getelementptr inbounds nuw %struct._php_output_buffer, ptr %30, i32 0, i32 3
  %32 = load i32, ptr %31, align 8
  %33 = and i32 %28, 1
  %34 = and i32 %32, -2
  %35 = or i32 %34, %33
  store i32 %35, ptr %31, align 8
  %36 = load ptr, ptr %2, align 8, !tbaa !69
  %37 = getelementptr inbounds nuw %struct._php_output_context, ptr %36, i32 0, i32 1
  %38 = getelementptr inbounds nuw %struct._php_output_buffer, ptr %37, i32 0, i32 0
  store ptr null, ptr %38, align 8, !tbaa !61
  %39 = load ptr, ptr %2, align 8, !tbaa !69
  %40 = getelementptr inbounds nuw %struct._php_output_context, ptr %39, i32 0, i32 1
  %41 = getelementptr inbounds nuw %struct._php_output_buffer, ptr %40, i32 0, i32 2
  store i64 0, ptr %41, align 8, !tbaa !64
  %42 = load ptr, ptr %2, align 8, !tbaa !69
  %43 = getelementptr inbounds nuw %struct._php_output_context, ptr %42, i32 0, i32 1
  %44 = getelementptr inbounds nuw %struct._php_output_buffer, ptr %43, i32 0, i32 3
  %45 = load i32, ptr %44, align 8
  %46 = and i32 %45, -2
  %47 = or i32 %46, 0
  store i32 %47, ptr %44, align 8
  %48 = load ptr, ptr %2, align 8, !tbaa !69
  %49 = getelementptr inbounds nuw %struct._php_output_context, ptr %48, i32 0, i32 1
  %50 = getelementptr inbounds nuw %struct._php_output_buffer, ptr %49, i32 0, i32 1
  store i64 0, ptr %50, align 8, !tbaa !127
  ret void
}

; Function Attrs: inlinehint nounwind uwtable
define internal void @php_output_context_init(ptr noundef %0, i32 noundef %1) #1 {
  %3 = alloca ptr, align 8
  %4 = alloca i32, align 4
  store ptr %0, ptr %3, align 8, !tbaa !69
  store i32 %1, ptr %4, align 4, !tbaa !57
  %5 = load ptr, ptr %3, align 8, !tbaa !69
  call void @llvm.memset.p0.i64(ptr align 8 %5, i8 0, i64 72, i1 false)
  %6 = load i32, ptr %4, align 4, !tbaa !57
  %7 = load ptr, ptr %3, align 8, !tbaa !69
  %8 = getelementptr inbounds nuw %struct._php_output_context, ptr %7, i32 0, i32 0
  store i32 %6, ptr %8, align 8, !tbaa !71
  ret void
}

; Function Attrs: inlinehint nounwind uwtable
define internal zeroext i1 @php_output_lock_error(i32 noundef %0) #1 {
  %2 = alloca i1, align 1
  %3 = alloca i32, align 4
  store i32 %0, ptr %3, align 4, !tbaa !57
  %4 = load i32, ptr %3, align 4, !tbaa !57
  %5 = icmp ne i32 %4, 0
  br i1 %5, label %6, label %13

6:                                                ; preds = %1
  %7 = load ptr, ptr getelementptr inbounds nuw (%struct._zend_output_globals, ptr @output_globals, i32 0, i32 1), align 8, !tbaa !29
  %8 = icmp ne ptr %7, null
  br i1 %8, label %9, label %13

9:                                                ; preds = %6
  %10 = load ptr, ptr getelementptr inbounds nuw (%struct._zend_output_globals, ptr @output_globals, i32 0, i32 2), align 8, !tbaa !30
  %11 = icmp ne ptr %10, null
  br i1 %11, label %12, label %13

12:                                               ; preds = %9
  call void @php_output_deactivate()
  call void (ptr, i32, ptr, ...) @php_error_docref(ptr noundef @.str, i32 noundef 1, ptr noundef @.str.16)
  store i1 true, ptr %2, align 1
  br label %14

13:                                               ; preds = %9, %6, %1
  store i1 false, ptr %2, align 1
  br label %14

14:                                               ; preds = %13, %12
  %15 = load i1, ptr %2, align 1
  ret i1 %15
}

; Function Attrs: inlinehint nounwind uwtable
define internal void @php_output_op(i32 noundef %0, ptr noundef %1, i64 noundef %2) #1 {
  %4 = alloca i32, align 4
  %5 = alloca ptr, align 8
  %6 = alloca i64, align 8
  %7 = alloca %struct._php_output_context, align 8
  %8 = alloca ptr, align 8
  %9 = alloca i32, align 4
  %10 = alloca i32, align 4
  store i32 %0, ptr %4, align 4, !tbaa !57
  store ptr %1, ptr %5, align 8, !tbaa !15
  store i64 %2, ptr %6, align 8, !tbaa !17
  call void @llvm.lifetime.start.p0(i64 72, ptr %7) #15
  call void @llvm.lifetime.start.p0(i64 8, ptr %8) #15
  call void @llvm.lifetime.start.p0(i64 4, ptr %9) #15
  %11 = load i32, ptr %4, align 4, !tbaa !57
  %12 = call zeroext i1 @php_output_lock_error(i32 noundef %11)
  br i1 %12, label %13, label %14

13:                                               ; preds = %3
  store i32 1, ptr %10, align 4
  br label %88

14:                                               ; preds = %3
  %15 = load i32, ptr %4, align 4, !tbaa !57
  call void @php_output_context_init(ptr noundef %7, i32 noundef %15)
  %16 = load ptr, ptr getelementptr inbounds nuw (%struct._zend_output_globals, ptr @output_globals, i32 0, i32 1), align 8, !tbaa !29
  %17 = icmp ne ptr %16, null
  br i1 %17, label %18, label %48

18:                                               ; preds = %14
  %19 = call i32 @zend_stack_count(ptr noundef @output_globals)
  store i32 %19, ptr %9, align 4, !tbaa !57
  %20 = icmp ne i32 %19, 0
  br i1 %20, label %21, label %48

21:                                               ; preds = %18
  %22 = load ptr, ptr %5, align 8, !tbaa !15
  %23 = getelementptr inbounds nuw %struct._php_output_context, ptr %7, i32 0, i32 1
  %24 = getelementptr inbounds nuw %struct._php_output_buffer, ptr %23, i32 0, i32 0
  store ptr %22, ptr %24, align 8, !tbaa !61
  %25 = load i64, ptr %6, align 8, !tbaa !17
  %26 = getelementptr inbounds nuw %struct._php_output_context, ptr %7, i32 0, i32 1
  %27 = getelementptr inbounds nuw %struct._php_output_buffer, ptr %26, i32 0, i32 2
  store i64 %25, ptr %27, align 8, !tbaa !64
  %28 = load i32, ptr %9, align 4, !tbaa !57
  %29 = icmp sgt i32 %28, 1
  br i1 %29, label %30, label %31

30:                                               ; preds = %21
  call void @zend_stack_apply_with_argument(ptr noundef @output_globals, i32 noundef 0, ptr noundef @php_output_stack_apply_op, ptr noundef %7)
  br label %47

31:                                               ; preds = %21
  %32 = call ptr @zend_stack_top(ptr noundef @output_globals)
  store ptr %32, ptr %8, align 8, !tbaa !27
  %33 = icmp ne ptr %32, null
  br i1 %33, label %34, label %45

34:                                               ; preds = %31
  %35 = load ptr, ptr %8, align 8, !tbaa !27
  %36 = load ptr, ptr %35, align 8, !tbaa !55
  %37 = getelementptr inbounds nuw %struct._php_output_handler, ptr %36, i32 0, i32 1
  %38 = load i32, ptr %37, align 8, !tbaa !65
  %39 = and i32 %38, 8192
  %40 = icmp ne i32 %39, 0
  br i1 %40, label %45, label %41

41:                                               ; preds = %34
  %42 = load ptr, ptr %8, align 8, !tbaa !27
  %43 = load ptr, ptr %42, align 8, !tbaa !55
  %44 = call i32 @php_output_handler_op(ptr noundef %43, ptr noundef %7)
  br label %46

45:                                               ; preds = %34, %31
  call void @php_output_context_pass(ptr noundef %7)
  br label %46

46:                                               ; preds = %45, %41
  br label %47

47:                                               ; preds = %46, %30
  br label %55

48:                                               ; preds = %18, %14
  %49 = load ptr, ptr %5, align 8, !tbaa !15
  %50 = getelementptr inbounds nuw %struct._php_output_context, ptr %7, i32 0, i32 2
  %51 = getelementptr inbounds nuw %struct._php_output_buffer, ptr %50, i32 0, i32 0
  store ptr %49, ptr %51, align 8, !tbaa !67
  %52 = load i64, ptr %6, align 8, !tbaa !17
  %53 = getelementptr inbounds nuw %struct._php_output_context, ptr %7, i32 0, i32 2
  %54 = getelementptr inbounds nuw %struct._php_output_buffer, ptr %53, i32 0, i32 2
  store i64 %52, ptr %54, align 8, !tbaa !68
  br label %55

55:                                               ; preds = %48, %47
  %56 = getelementptr inbounds nuw %struct._php_output_context, ptr %7, i32 0, i32 2
  %57 = getelementptr inbounds nuw %struct._php_output_buffer, ptr %56, i32 0, i32 0
  %58 = load ptr, ptr %57, align 8, !tbaa !67
  %59 = icmp ne ptr %58, null
  br i1 %59, label %60, label %87

60:                                               ; preds = %55
  %61 = getelementptr inbounds nuw %struct._php_output_context, ptr %7, i32 0, i32 2
  %62 = getelementptr inbounds nuw %struct._php_output_buffer, ptr %61, i32 0, i32 2
  %63 = load i64, ptr %62, align 8, !tbaa !68
  %64 = icmp ne i64 %63, 0
  br i1 %64, label %65, label %87

65:                                               ; preds = %60
  call void @php_output_header()
  %66 = load i32, ptr getelementptr inbounds nuw (%struct._zend_output_globals, ptr @output_globals, i32 0, i32 5), align 4, !tbaa !21
  %67 = and i32 %66, 2
  %68 = icmp ne i32 %67, 0
  br i1 %68, label %86, label %69

69:                                               ; preds = %65
  %70 = load ptr, ptr getelementptr inbounds nuw (%struct._sapi_module_struct, ptr @sapi_module, i32 0, i32 6), align 8, !tbaa !58
  %71 = getelementptr inbounds nuw %struct._php_output_context, ptr %7, i32 0, i32 2
  %72 = getelementptr inbounds nuw %struct._php_output_buffer, ptr %71, i32 0, i32 0
  %73 = load ptr, ptr %72, align 8, !tbaa !67
  %74 = getelementptr inbounds nuw %struct._php_output_context, ptr %7, i32 0, i32 2
  %75 = getelementptr inbounds nuw %struct._php_output_buffer, ptr %74, i32 0, i32 2
  %76 = load i64, ptr %75, align 8, !tbaa !68
  %77 = call i64 %70(ptr noundef %73, i64 noundef %76)
  %78 = load i32, ptr getelementptr inbounds nuw (%struct._zend_output_globals, ptr @output_globals, i32 0, i32 5), align 4, !tbaa !21
  %79 = and i32 %78, 1
  %80 = icmp ne i32 %79, 0
  br i1 %80, label %81, label %83

81:                                               ; preds = %69
  %82 = call i32 @sapi_flush()
  br label %83

83:                                               ; preds = %81, %69
  %84 = load i32, ptr getelementptr inbounds nuw (%struct._zend_output_globals, ptr @output_globals, i32 0, i32 5), align 4, !tbaa !21
  %85 = or i32 %84, 8
  store i32 %85, ptr getelementptr inbounds nuw (%struct._zend_output_globals, ptr @output_globals, i32 0, i32 5), align 4, !tbaa !21
  br label %86

86:                                               ; preds = %83, %65
  br label %87

87:                                               ; preds = %86, %60, %55
  call void @php_output_context_dtor(ptr noundef %7)
  store i32 0, ptr %10, align 4
  br label %88

88:                                               ; preds = %87, %13
  call void @llvm.lifetime.end.p0(i64 4, ptr %9) #15
  call void @llvm.lifetime.end.p0(i64 8, ptr %8) #15
  call void @llvm.lifetime.end.p0(i64 72, ptr %7) #15
  %89 = load i32, ptr %10, align 4
  switch i32 %89, label %91 [
    i32 0, label %90
    i32 1, label %90
  ]

90:                                               ; preds = %88, %88
  ret void

91:                                               ; preds = %88
  unreachable
}