; Function Attrs: inlinehint nounwind uwtable
define internal fastcc void @php_output_op(i32 noundef range(i32 0, 5) %0, ptr noundef %1, i64 noundef %2) unnamed_addr #8 {
  %4 = alloca %struct._php_output_context, align 8
  call void @llvm.lifetime.start.p0(i64 72, ptr nonnull %4) #22
  %5 = icmp ne i32 %0, 0
  %6 = load ptr, ptr getelementptr inbounds nuw (i8, ptr @output_globals, i64 24), align 8
  %7 = icmp ne ptr %6, null
  %or.cond.i = select i1 %5, i1 %7, i1 false
  %8 = load ptr, ptr getelementptr inbounds nuw (i8, ptr @output_globals, i64 32), align 8
  %9 = icmp ne ptr %8, null
  %or.cond3.i = select i1 %or.cond.i, i1 %9, i1 false
  br i1 %or.cond3.i, label %php_output_lock_error.exit.thread, label %php_output_lock_error.exit

php_output_lock_error.exit.thread:                ; preds = %3
  tail call void @php_output_deactivate()
  tail call void (ptr, i32, ptr, ...) @php_error_docref(ptr noundef nonnull @.str, i32 noundef 1, ptr noundef nonnull @.str.16) #22
  br label %php_output_context_dtor.exit

php_output_lock_error.exit:                       ; preds = %3
  call void @llvm.memset.p0.i64(ptr noundef nonnull align 8 dereferenceable(72) %4, i8 0, i64 72, i1 false)
  store i32 %0, ptr %4, align 8, !tbaa !49
  %.not = icmp eq ptr %6, null
  br i1 %.not, label %31, label %10

10:                                               ; preds = %php_output_lock_error.exit
  %11 = tail call i32 @zend_stack_count(ptr noundef nonnull @output_globals) #22
  %.not12 = icmp eq i32 %11, 0
  br i1 %.not12, label %31, label %12

12:                                               ; preds = %10
  %13 = getelementptr inbounds nuw i8, ptr %4, i64 8
  store ptr %1, ptr %13, align 8, !tbaa !52
  %14 = getelementptr inbounds nuw i8, ptr %4, i64 24
  store i64 %2, ptr %14, align 8, !tbaa !53
  %15 = icmp sgt i32 %11, 1
  br i1 %15, label %16, label %17

16:                                               ; preds = %12
  call void @zend_stack_apply_with_argument(ptr noundef nonnull @output_globals, i32 noundef 0, ptr noundef nonnull @php_output_stack_apply_op, ptr noundef nonnull %4) #22
  br label %34

17:                                               ; preds = %12
  %18 = tail call ptr @zend_stack_top(ptr noundef nonnull @output_globals) #22
  %.not13 = icmp eq ptr %18, null
  br i1 %.not13, label %26, label %19

19:                                               ; preds = %17
  %20 = load ptr, ptr %18, align 8, !tbaa !18
  %21 = getelementptr inbounds nuw i8, ptr %20, i64 8
  %22 = load i32, ptr %21, align 8, !tbaa !54
  %23 = and i32 %22, 8192
  %.not14 = icmp eq i32 %23, 0
  br i1 %.not14, label %24, label %26

24:                                               ; preds = %19
  %25 = call fastcc i32 @php_output_handler_op(ptr noundef nonnull %20, ptr noundef nonnull %4)
  br label %34

26:                                               ; preds = %19, %17
  %27 = getelementptr inbounds nuw i8, ptr %4, i64 40
  store ptr %1, ptr %27, align 8, !tbaa !56
  %28 = getelementptr inbounds nuw i8, ptr %4, i64 56
  store i64 %2, ptr %28, align 8, !tbaa !57
  %29 = getelementptr inbounds nuw i8, ptr %4, i64 48
  store i64 0, ptr %29, align 8, !tbaa !58
  %30 = getelementptr inbounds nuw i8, ptr %4, i64 64
  store i32 0, ptr %30, align 8
  call void @llvm.memset.p0.i64(ptr noundef nonnull align 8 dereferenceable(28) %13, i8 0, i64 28, i1 false)
  br label %34

31:                                               ; preds = %10, %php_output_lock_error.exit
  %32 = getelementptr inbounds nuw i8, ptr %4, i64 40
  store ptr %1, ptr %32, align 8, !tbaa !56
  %33 = getelementptr inbounds nuw i8, ptr %4, i64 56
  store i64 %2, ptr %33, align 8, !tbaa !57
  br label %34

34:                                               ; preds = %16, %26, %24, %31
  %35 = getelementptr inbounds nuw i8, ptr %4, i64 40
  %36 = load ptr, ptr %35, align 8, !tbaa !56
  %37 = icmp ne ptr %36, null
  %38 = getelementptr inbounds nuw i8, ptr %4, i64 56
  %39 = load i64, ptr %38, align 8
  %40 = icmp ne i64 %39, 0
  %or.cond = select i1 %37, i1 %40, i1 false
  br i1 %or.cond, label %41, label %56

41:                                               ; preds = %34
  call fastcc void @php_output_header()
  %42 = load i32, ptr getelementptr inbounds nuw (i8, ptr @output_globals, i64 52), align 4, !tbaa !11
  %43 = and i32 %42, 2
  %.not15 = icmp eq i32 %43, 0
  br i1 %.not15, label %44, label %56

44:                                               ; preds = %41
  %45 = load ptr, ptr getelementptr inbounds nuw (i8, ptr @sapi_module, i64 48), align 8, !tbaa !59
  %46 = load ptr, ptr %35, align 8, !tbaa !56
  %47 = load i64, ptr %38, align 8, !tbaa !57
  %48 = call i64 %45(ptr noundef %46, i64 noundef %47) #22
  %49 = load i32, ptr getelementptr inbounds nuw (i8, ptr @output_globals, i64 52), align 4, !tbaa !11
  %50 = and i32 %49, 1
  %.not16 = icmp eq i32 %50, 0
  br i1 %.not16, label %53, label %51

51:                                               ; preds = %44
  %52 = call i32 @sapi_flush() #22
  %.pre = load i32, ptr getelementptr inbounds nuw (i8, ptr @output_globals, i64 52), align 4, !tbaa !11
  br label %53

53:                                               ; preds = %51, %44
  %54 = phi i32 [ %.pre, %51 ], [ %49, %44 ]
  %55 = or i32 %54, 8
  store i32 %55, ptr getelementptr inbounds nuw (i8, ptr @output_globals, i64 52), align 4, !tbaa !11
  br label %56

56:                                               ; preds = %41, %53, %34
  %57 = getelementptr inbounds nuw i8, ptr %4, i64 8
  %58 = getelementptr inbounds nuw i8, ptr %4, i64 32
  %59 = load i32, ptr %58, align 8
  %60 = and i32 %59, 1
  %.not.i = icmp eq i32 %60, 0
  br i1 %.not.i, label %64, label %61

61:                                               ; preds = %56
  %62 = load ptr, ptr %57, align 8, !tbaa !52
  %.not9.i = icmp eq ptr %62, null
  br i1 %.not9.i, label %64, label %63

63:                                               ; preds = %61
  call void @_efree(ptr noundef nonnull %62) #22
  store ptr null, ptr %57, align 8, !tbaa !52
  br label %64

64:                                               ; preds = %63, %61, %56
  %65 = getelementptr inbounds nuw i8, ptr %4, i64 64
  %66 = load i32, ptr %65, align 8
  %67 = and i32 %66, 1
  %.not10.i = icmp eq i32 %67, 0
  br i1 %.not10.i, label %php_output_context_dtor.exit, label %68

68:                                               ; preds = %64
  %69 = load ptr, ptr %35, align 8, !tbaa !56
  %.not11.i = icmp eq ptr %69, null
  br i1 %.not11.i, label %php_output_context_dtor.exit, label %70

70:                                               ; preds = %68
  call void @_efree(ptr noundef nonnull %69) #22
  br label %php_output_context_dtor.exit

php_output_context_dtor.exit:                     ; preds = %70, %68, %64, %php_output_lock_error.exit.thread
  call void @llvm.lifetime.end.p0(i64 72, ptr nonnull %4) #22
  ret void
}